target datalayout = "e-m:e-p270:32:32-p271:32:32-p272:64:64-i64:64-i128:128-f80:128-n8:16:32:64-S128"
target triple = "x86_64-pc-linux-gnu"

@.str.3 = private unnamed_addr constant [6 x i8] c"guc.c\00", align 1
@GUCMemoryContext = internal global ptr null, align 8
@.str.14 = private unnamed_addr constant [14 x i8] c"out of memory\00", align 1
@__func__.guc_realloc = private unnamed_addr constant [12 x i8] c"guc_realloc\00", align 1

; Function Attrs: nounwind uwtable
define dso_local ptr @guc_realloc(i32 noundef %0, ptr noundef %1, i64 noundef %2) #0 {
  %4 = alloca i32, align 4
  %5 = alloca ptr, align 8
  %6 = alloca i64, align 8
  %7 = alloca ptr, align 8
  store i32 %0, ptr %4, align 4
  store ptr %1, ptr %5, align 8
  store i64 %2, ptr %6, align 8
  call void @llvm.lifetime.start.p0(i64 8, ptr %7) #16
  %8 = load ptr, ptr %5, align 8
  %9 = icmp ne ptr %8, null
  br i1 %9, label %10, label %14

10:                                               ; preds = %3
  %11 = load ptr, ptr %5, align 8
  %12 = load i64, ptr %6, align 8
  %13 = call ptr @repalloc_extended(ptr noundef %11, i64 noundef %12, i32 noundef 2)
  store ptr %13, ptr %7, align 8
  br label %18

14:                                               ; preds = %3
  %15 = load ptr, ptr @GUCMemoryContext, align 8
  %16 = load i64, ptr %6, align 8
  %17 = call ptr @MemoryContextAllocExtended(ptr noundef %15, i64 noundef %16, i32 noundef 2)
  store ptr %17, ptr %7, align 8
  br label %18

18:                                               ; preds = %14, %10
  %19 = load ptr, ptr %7, align 8
  %20 = icmp eq ptr %19, null
  %21 = zext i1 %20 to i32
  %22 = icmp ne i32 %21, 0
  %23 = zext i1 %22 to i32
  %24 = sext i32 %23 to i64
  %25 = call i64 @llvm.expect.i64(i64 %24, i64 0)
  %26 = icmp ne i64 %25, 0
  br i1 %26, label %27, label %53

27:                                               ; preds = %18
  br label %28

28:                                               ; preds = %27
  %29 = load i32, ptr %4, align 4
  %30 = call i1 @llvm.is.constant.i32(i32 %29)
  br i1 %30, label %31, label %37

31:                                               ; preds = %28
  %32 = load i32, ptr %4, align 4
  %33 = icmp sge i32 %32, 21
  br i1 %33, label %34, label %37

34:                                               ; preds = %31
  %35 = load i32, ptr %4, align 4
  %36 = call zeroext i1 @errstart_cold(i32 noundef %35, ptr noundef null) #18
  br i1 %36, label %40, label %43

37:                                               ; preds = %31, %28
  %38 = load i32, ptr %4, align 4
  %39 = call zeroext i1 @errstart(i32 noundef %38, ptr noundef null)
  br i1 %39, label %40, label %43

40:                                               ; preds = %37, %34
  %41 = call i32 @errcode(i32 noundef 8389)
  %42 = call i32 (ptr, ...) @errmsg(ptr noundef @.str.14)
  call void @errfinish(ptr noundef @.str.3, i32 noundef 672, ptr noundef @__func__.guc_realloc)
  br label %43

43:                                               ; preds = %40, %37, %34
  %44 = load i32, ptr %4, align 4
  %45 = call i1 @llvm.is.constant.i32(i32 %44)
  br i1 %45, label %46, label %50

46:                                               ; preds = %43
  %47 = load i32, ptr %4, align 4
  %48 = icmp sge i32 %47, 21
  br i1 %48, label %49, label %50

49:                                               ; preds = %46
  unreachable

50:                                               ; preds = %46, %43
  br label %51

51:                                               ; preds = %50
  br label %52

52:                                               ; preds = %51
  br label %53

53:                                               ; preds = %52, %18
  %54 = load ptr, ptr %7, align 8
  call void @llvm.lifetime.end.p0(i64 8, ptr %7) #16
  ret ptr %54
}