; Function Attrs: nounwind uwtable
define dso_local ptr @guc_realloc(i32 noundef %0, ptr noundef %1, i64 noundef %2) local_unnamed_addr #0 {
  %.not = icmp eq ptr %1, null
  br i1 %.not, label %6, label %4

4:                                                ; preds = %3
  %5 = tail call ptr @repalloc_extended(ptr noundef nonnull %1, i64 noundef %2, i32 noundef 2) #29
  br label %9

6:                                                ; preds = %3
  %7 = load ptr, ptr @GUCMemoryContext, align 8
  %8 = tail call ptr @MemoryContextAllocExtended(ptr noundef %7, i64 noundef %2, i32 noundef 2) #29
  br label %9

9:                                                ; preds = %6, %4
  %.0 = phi ptr [ %5, %4 ], [ %8, %6 ]
  %10 = icmp eq ptr %.0, null
  br i1 %10, label %11, label %16, !prof !16

11:                                               ; preds = %9
  %12 = tail call zeroext i1 @errstart(i32 noundef %0, ptr noundef null) #29
  br i1 %12, label %13, label %16

13:                                               ; preds = %11
  %14 = tail call i32 @errcode(i32 noundef 8389) #29
  %15 = tail call i32 (ptr, ...) @errmsg(ptr noundef nonnull @.str.14) #29
  tail call void @errfinish(ptr noundef nonnull @.str.3, i32 noundef 672, ptr noundef nonnull @__func__.guc_realloc) #29
  br label %16

16:                                               ; preds = %11, %13, %9
  ret ptr %.0
}